; Function Attrs: nounwind uwtable
define ptr @l_Lean_Elab_Command_hasDuplicateAntiquot(ptr noundef readonly captures(none) %0) local_unnamed_addr #0 {
  %2 = getelementptr i8, ptr %0, i64 8
  %.val = load i64, ptr %2, align 8, !tbaa !12
  %3 = load ptr, ptr @l_Lean_Elab_Command_hasDuplicateAntiquot___closed__1, align 8, !tbaa !4
  %4 = tail call ptr @l_Array_forIn_x27Unsafe_loop___at_Lean_Elab_Command_hasDuplicateAntiquot___spec__3(ptr poison, ptr nonnull poison, ptr noundef nonnull inttoptr (i64 1 to ptr), ptr noundef %0, i64 noundef %.val, i64 noundef 0, ptr noundef %3)
  %5 = getelementptr inbounds nuw i8, ptr %4, i64 8
  %6 = load ptr, ptr %5, align 8, !tbaa !4
  %7 = ptrtoint ptr %6 to i64
  %8 = and i64 %7, 1
  %.not = icmp eq i64 %8, 0
  br i1 %.not, label %9, label %lean_inc.exit18

9:                                                ; preds = %1
  %.val.i = load i32, ptr %6, align 4, !tbaa !8
  %10 = icmp sgt i32 %.val.i, 0
  br i1 %10, label %11, label %13, !prof !11

11:                                               ; preds = %9
  %12 = add nuw i32 %.val.i, 1
  store i32 %12, ptr %6, align 4, !tbaa !8
  br label %lean_inc.exit18

13:                                               ; preds = %9
  %.not.i21 = icmp eq i32 %.val.i, 0
  br i1 %.not.i21, label %lean_inc.exit18, label %14

14:                                               ; preds = %13
  tail call void @lean_inc_ref_cold(ptr noundef nonnull %6) #6
  br label %lean_inc.exit18

lean_inc.exit18:                                  ; preds = %14, %13, %11, %1
  %15 = ptrtoint ptr %4 to i64
  %16 = and i64 %15, 1
  %.not27 = icmp eq i64 %16, 0
  br i1 %.not27, label %17, label %lean_dec.exit17

17:                                               ; preds = %lean_inc.exit18
  %18 = load i32, ptr %4, align 4, !tbaa !8
  %19 = icmp sgt i32 %18, 1
  br i1 %19, label %20, label %22, !prof !11

20:                                               ; preds = %17
  %21 = add nsw i32 %18, -1
  store i32 %21, ptr %4, align 4, !tbaa !8
  br label %lean_dec.exit17

22:                                               ; preds = %17
  %.not.i = icmp eq i32 %18, 0
  br i1 %.not.i, label %lean_dec.exit17, label %23

23:                                               ; preds = %22
  tail call void @lean_dec_ref_cold(ptr noundef nonnull %4) #6
  br label %lean_dec.exit17

lean_dec.exit17:                                  ; preds = %23, %22, %20, %lean_inc.exit18
  br i1 %.not, label %27, label %24

24:                                               ; preds = %lean_dec.exit17
  %25 = lshr i64 %7, 1
  %26 = trunc i64 %25 to i32
  br label %lean_obj_tag.exit

27:                                               ; preds = %lean_dec.exit17
  %28 = getelementptr i8, ptr %6, i64 4
  %.val.i23 = load i32, ptr %28, align 4
  %29 = lshr i32 %.val.i23, 24
  br label %lean_obj_tag.exit

lean_obj_tag.exit:                                ; preds = %24, %27
  %.0.i = phi i32 [ %26, %24 ], [ %29, %27 ]
  %30 = icmp eq i32 %.0.i, 0
  br i1 %30, label %31, label %33

31:                                               ; preds = %lean_obj_tag.exit
  %32 = load ptr, ptr @l_Lean_Elab_Command_hasDuplicateAntiquot___closed__3, align 8, !tbaa !4
  br label %lean_dec.exit

33:                                               ; preds = %lean_obj_tag.exit
  %34 = getelementptr inbounds nuw i8, ptr %6, i64 8
  %35 = load ptr, ptr %34, align 8, !tbaa !4
  %36 = ptrtoint ptr %35 to i64
  %37 = and i64 %36, 1
  %.not28 = icmp eq i64 %37, 0
  br i1 %.not28, label %38, label %lean_inc.exit

38:                                               ; preds = %33
  %.val.i24 = load i32, ptr %35, align 4, !tbaa !8
  %39 = icmp sgt i32 %.val.i24, 0
  br i1 %39, label %40, label %42, !prof !11

40:                                               ; preds = %38
  %41 = add nuw i32 %.val.i24, 1
  store i32 %41, ptr %35, align 4, !tbaa !8
  br label %lean_inc.exit

42:                                               ; preds = %38
  %.not.i25 = icmp eq i32 %.val.i24, 0
  br i1 %.not.i25, label %lean_inc.exit, label %43

43:                                               ; preds = %42
  tail call void @lean_inc_ref_cold(ptr noundef nonnull %35) #6
  br label %lean_inc.exit

lean_inc.exit:                                    ; preds = %43, %42, %40, %33
  br i1 %.not, label %44, label %lean_dec.exit

44:                                               ; preds = %lean_inc.exit
  %45 = load i32, ptr %6, align 4, !tbaa !8
  %46 = icmp sgt i32 %45, 1
  br i1 %46, label %47, label %49, !prof !11

47:                                               ; preds = %44
  %48 = add nsw i32 %45, -1
  store i32 %48, ptr %6, align 4, !tbaa !8
  br label %lean_dec.exit

49:                                               ; preds = %44
  %.not.i19 = icmp eq i32 %45, 0
  br i1 %.not.i19, label %lean_dec.exit, label %50

50:                                               ; preds = %49
  tail call void @lean_dec_ref_cold(ptr noundef nonnull %6) #6
  br label %lean_dec.exit

lean_dec.exit:                                    ; preds = %lean_inc.exit, %47, %49, %50, %31
  %.0 = phi ptr [ %32, %31 ], [ %35, %50 ], [ %35, %49 ], [ %35, %47 ], [ %35, %lean_inc.exit ]
  ret ptr %.0
}